; Function Attrs: nounwind uwtable
define internal range(i32 -2147483648, 1) i32 @default_filter_frame(ptr noundef readonly captures(none) %0, ptr noundef %1) unnamed_addr #0 {
  %3 = getelementptr inbounds nuw i8, ptr %0, i64 16
  %4 = load ptr, ptr %3, align 8, !tbaa !47
  %5 = getelementptr inbounds nuw i8, ptr %4, i64 56
  %6 = load ptr, ptr %5, align 8, !tbaa !29
  %7 = load ptr, ptr %6, align 8, !tbaa !17
  %8 = tail call i32 @ff_filter_frame(ptr noundef %7, ptr noundef %1)
  ret i32 %8
}